Certificate:
    Data:
        Version: 1 (0x0)
        Serial Number: 1048577 (0x100001)
        Signature Algorithm: md5WithRSAEncryption
        Issuer: O=Company/emailAddress=email@domain.ru, L=Moscow, ST=Moscow, C=RU, CN=Common text
        Validity
            Not Before: Apr 22 10:15:50 2015 GMT
            Not After : Apr 21 10:15:50 2016 GMT
        Subject: C=RU, ST=Moscow, O=Company, CN=Common text
        Subject Public Key Info:
            Public Key Algorithm: rsaEncryption
            RSA Public Key: (1024 bit)
                Modulus (1024 bit):
                    00:ca:14:88:41:38:64:5c:8b:75:42:76:73:52:ed:
                    f2:e7:eb:88:24:25:0f:c8:e3:f5:59:7a:12:7d:cb:
                    b9:5f:c7:62:e3:ce:c4:d4:c5:ce:ec:b9:4c:dc:e3:
                    e5:cf:56:10:48:1a:14:55:11:9f:2f:0f:6c:50:31:
                    c7:14:0e:b4:d3:49:4e:2f:ea:e1:0b:9b:c0:bc:a5:
                    c3:2d:2f:d2:18:c6:59:31:fc:66:59:24:15:5a:4d:
                    a4:0a:63:15:55:c0:9c:29:e9:b7:e8:e8:80:e1:d3:
                    94:95:fb:93:e9:1e:66:85:cb:30:d8:9d:a8:0d:3a:
                    18:81:72:e5:d6:ff:e4:24:ad
                Exponent: 65537 (0x10001)
    Signature Algorithm: md5WithRSAEncryption
        80:a8:f1:06:3d:52:97:73:5b:89:56:4d:16:b3:fe:98:f5:21:
        40:55:03:31:a4:28:92:09:00:db:b9:60:fa:91:3b:f9:49:53:
        ec:fe:9d:98:b8:98:56:7c:b3:f5:f0:2a:31:94:60:c8:b4:6b:
        f5:bd:6b:46:66:f9:c3:26:c4:54:43:5f:c6:4a:ca:39:22:bb:
        d9:cb:83:7e:82:b4:57:23:a7:41:42:95:35:6b:93:17:b3:f8:
        ff:93:0b:06:cd:fd:3a:ef:74:ee:d3:d2:2b:48:00:15:c6:c3:
        55:5a:f8:8b:c4:40:25:aa:1e:4e:66:9f:79:d3:5e:6b:ed:51:
        71:f2
-----BEGIN CERTIFICATE-----
MIICLjCCAZcCAxAAATANBgkqhkiG9w0BAQQFADB3MRAwDgYDVQQKEwdDb21wYW55
MR4wHAYJKoZIhvcNAQkBFg9lbWFpbEBkb21haW4ucnUxDzANBgNVBAcTBk1vc2Nv
dzEPMA0GA1UECBMGTW9zY293MQswCQYDVQQGEwJSVTEUMBIGA1UEAxMLQ29tbW9u
IHRleHQwHhcNMTUwNDIyMTAxNTUwWhcNMTYwNDIxMTAxNTUwWjBGMQswCQYDVQQG
EwJSVTEPMA0GA1UECBMGTW9zY293MRAwDgYDVQQKEwdDb21wYW55MRQwEgYDVQQD
EwtDb21tb24gdGV4dDCBnzANBgkqhkiG9w0BAQEFAAOBjQAwgYkCgYEAyhSIQThk
XIt1QnZzUu3y5+uIJCUPyOP1WXoSfcu5X8di487E1MXO7LlM3OPlz1YQSBoUVRGf
Lw9sUDHHFA6000lOL+rhC5vAvKXDLS/SGMZZMfxmWSQVWk2kCmMVVcCcKem36OiA
4dOUlfuT6R5mhcsw2J2oDToYgXLl1v/kJK0CAwEAATANBgkqhkiG9w0BAQQFAAOB
gQCAqPEGPVKXc1uJVk0Ws/6Y9SFAVQMxpCiSCQDbuWD6kTv5SVPs/p2YuJhWfLP1
8CoxlGDItGv1vWtGZvnDJsRUQ1/GSso5IrvZy4N+grRXI6dBQpU1a5MXs/j/kwsG
zf0673Tu09IrSAAVxsNVWviLxEAlqh5OZp95015r7VFx8g==
-----END CERTIFICATE-----
