Certificate:
    Data:
        Version: 1 (0x0)
        Serial Number: 1048578 (0x100002)
        Signature Algorithm: md5WithRSAEncryption
        Issuer: O=SUAI/emailAddress=uvesnin@gmail.com, L=SPb, ST=SPb, C=RU, CN=root
        Validity
            Not Before: Apr 22 10:21:50 2015 GMT
            Not After : Apr 21 10:21:50 2016 GMT
        Subject: C=RU, ST=SPb, O=SUAI, CN=yuriy
        Subject Public Key Info:
            Public Key Algorithm: rsaEncryption
            RSA Public Key: (1024 bit)
                Modulus (1024 bit):
                    00:a6:52:9e:d9:0a:99:42:66:d1:af:58:fb:62:3a:
                    3b:f8:1b:55:e6:dd:6e:70:b8:02:a7:ca:43:f2:54:
                    ba:a9:02:c5:96:f0:00:3b:eb:13:b3:79:d0:f0:1a:
                    ef:ed:29:63:31:5a:57:a7:10:b8:39:81:c7:b2:a4:
                    aa:25:e3:00:56:0e:5c:53:3b:72:97:f1:c1:ec:f8:
                    8e:ab:45:a5:98:f3:1a:52:4f:a0:ce:d5:2e:6a:48:
                    3b:09:ae:a8:ba:f6:1d:33:86:a0:61:8b:a8:55:ed:
                    51:40:31:f9:55:ec:d7:93:dd:b3:52:88:95:5b:66:
                    c2:43:69:77:de:f8:55:4e:19
                Exponent: 65537 (0x10001)
    Signature Algorithm: md5WithRSAEncryption
        89:be:4e:82:ed:c3:5c:ee:3b:08:fe:eb:1c:13:f0:96:69:51:
        64:aa:fe:7a:d4:31:b5:d8:f4:34:cf:86:15:cd:26:9d:61:ee:
        d8:1e:e3:22:d6:74:c8:17:b5:14:30:1d:7b:af:e1:38:ac:d0:
        3f:bb:66:99:ba:90:bc:c5:0b:09:04:75:ae:b8:c5:da:f1:22:
        b0:23:13:7e:7a:fa:05:5a:a7:fc:eb:1a:09:63:61:ca:36:45:
        15:2a:0e:5d:c8:06:49:97:70:a2:b2:01:26:fd:93:82:5b:02:
        8d:e5:78:96:b4:ac:16:b4:22:5c:92:58:91:99:59:83:26:82:
        48:d1
-----BEGIN CERTIFICATE-----
MIICFDCCAX0CAxAAAjANBgkqhkiG9w0BAQQFADBpMQ0wCwYDVQQKEwRTVUFJMSAw
HgYJKoZIhvcNAQkBFhF1dmVzbmluQGdtYWlsLmNvbTEMMAoGA1UEBxMDU1BiMQww
CgYDVQQIEwNTUGIxCzAJBgNVBAYTAlJVMQ0wCwYDVQQDEwRyb290MB4XDTE1MDQy
MjEwMjE1MFoXDTE2MDQyMTEwMjE1MFowOjELMAkGA1UEBhMCUlUxDDAKBgNVBAgT
A1NQYjENMAsGA1UEChMEU1VBSTEOMAwGA1UEAxMFeXVyaXkwgZ8wDQYJKoZIhvcN
AQEBBQADgY0AMIGJAoGBAKZSntkKmUJm0a9Y+2I6O/gbVebdbnC4AqfKQ/JUuqkC
xZbwADvrE7N50PAa7+0pYzFaV6cQuDmBx7KkqiXjAFYOXFM7cpfxwez4jqtFpZjz
GlJPoM7VLmpIOwmuqLr2HTOGoGGLqFXtUUAx+VXs15Pds1KIlVtmwkNpd974VU4Z
AgMBAAEwDQYJKoZIhvcNAQEEBQADgYEAib5Ogu3DXO47CP7rHBPwlmlRZKr+etQx
tdj0NM+GFc0mnWHu2B7jItZ0yBe1FDAde6/hOKzQP7tmmbqQvMULCQR1rrjF2vEi
sCMTfnr6BVqn/OsaCWNhyjZFFSoOXcgGSZdworIBJv2TglsCjeV4lrSsFrQiXJJY
kZlZgyaCSNE=
-----END CERTIFICATE-----
